; ModuleID = 'source-C-CXX/39/2862.c'
source_filename = "source-C-CXX/39/2862.c"
target datalayout = "e-m:e-p270:32:32-p271:32:32-p272:64:64-i64:64-f80:128-n8:16:32:64-S128"
target triple = "x86_64-pc-linux-gnu"

@.str = private unnamed_addr constant [16 x i8] c"%lf%lf%lf%lf%lf\00", align 1
@.str.1 = private unnamed_addr constant [14 x i8] c"Invalid input\00", align 1
@.str.2 = private unnamed_addr constant [6 x i8] c"%.4lf\00", align 1

; Function Attrs: nofree nounwind sspstrong uwtable
define dso_local i32 @main() local_unnamed_addr #0 {
  %1 = alloca double, align 8
  %2 = alloca double, align 8
  %3 = alloca double, align 8
  %4 = alloca double, align 8
  %5 = alloca double, align 8
  %6 = bitcast double* %1 to i8*
  call void @llvm.lifetime.start.p0i8(i64 8, i8* nonnull %6) #6
  %7 = bitcast double* %2 to i8*
  call void @llvm.lifetime.start.p0i8(i64 8, i8* nonnull %7) #6
  %8 = bitcast double* %3 to i8*
  call void @llvm.lifetime.start.p0i8(i64 8, i8* nonnull %8) #6
  %9 = bitcast double* %4 to i8*
  call void @llvm.lifetime.start.p0i8(i64 8, i8* nonnull %9) #6
  %10 = bitcast double* %5 to i8*
  call void @llvm.lifetime.start.p0i8(i64 8, i8* nonnull %10) #6
  %11 = call i32 (i8*, ...) @__isoc99_scanf(i8* getelementptr inbounds ([16 x i8], [16 x i8]* @.str, i64 0, i64 0), double* nonnull %1, double* nonnull %2, double* nonnull %3, double* nonnull %4, double* nonnull %5)
  %12 = load double, double* %1, align 8, !tbaa !5
  %13 = load double, double* %2, align 8, !tbaa !5
  %14 = load double, double* %3, align 8, !tbaa !5
  %15 = load double, double* %4, align 8, !tbaa !5
  %16 = fadd double %12, %13
  %17 = fadd double %16, %14
  %18 = fadd double %17, %15
  %19 = fmul double %18, 5.000000e-01
  %20 = fsub double %19, %12
  %21 = fsub double %19, %13
  %22 = fsub double %19, %14
  %23 = fsub double %19, %15
  %24 = fmul double %20, %21
  %25 = fmul double %22, %24
  %26 = fmul double %23, %25
  %27 = load double, double* %5, align 8, !tbaa !5
  %28 = fdiv double %27, 7.200000e+02
  %29 = fmul double %28, 2.000000e+00
  %30 = fmul double %29, 1.000000e+02
  %31 = call double @cos(double %30) #6
  %32 = call double @cos(double %30) #6
  %33 = fcmp olt double %26, 0.000000e+00
  br i1 %33, label %34, label %36

34:                                               ; preds = %0
  %35 = call i32 (i8*, ...) @printf(i8* nonnull dereferenceable(1) getelementptr inbounds ([14 x i8], [14 x i8]* @.str.1, i64 0, i64 0))
  br label %45

36:                                               ; preds = %0
  %37 = fmul double %12, %13
  %38 = fmul double %37, %14
  %39 = fmul double %38, %15
  %40 = fmul double %39, %31
  %41 = fmul double %40, %32
  %42 = fsub double %26, %41
  %43 = call double @sqrt(double %42) #6
  %44 = call i32 (i8*, ...) @printf(i8* nonnull dereferenceable(1) getelementptr inbounds ([6 x i8], [6 x i8]* @.str.2, i64 0, i64 0), double %43)
  br label %45

45:                                               ; preds = %36, %34
  call void @llvm.lifetime.end.p0i8(i64 8, i8* nonnull %10) #6
  call void @llvm.lifetime.end.p0i8(i64 8, i8* nonnull %9) #6
  call void @llvm.lifetime.end.p0i8(i64 8, i8* nonnull %8) #6
  call void @llvm.lifetime.end.p0i8(i64 8, i8* nonnull %7) #6
  call void @llvm.lifetime.end.p0i8(i64 8, i8* nonnull %6) #6
  ret i32 0
}

; Function Attrs: argmemonly mustprogress nofree nosync nounwind willreturn
declare void @llvm.lifetime.start.p0i8(i64 immarg, i8* nocapture) #1

; Function Attrs: nofree nounwind
declare noundef i32 @__isoc99_scanf(i8* nocapture noundef readonly, ...) local_unnamed_addr #2

; Function Attrs: mustprogress nofree norecurse nosync nounwind readnone sspstrong uwtable willreturn
define dso_local double @t(double %0, double %1, double %2, double %3) local_unnamed_addr #3 {
  %5 = fadd double %0, %1
  %6 = fadd double %5, %2
  %7 = fadd double %6, %3
  %8 = fmul double %7, 5.000000e-01
  %9 = fsub double %8, %0
  %10 = fsub double %8, %1
  %11 = fsub double %8, %2
  %12 = fsub double %8, %3
  %13 = fmul double %9, %10
  %14 = fmul double %11, %13
  %15 = fmul double %12, %14
  ret double %15
}

; Function Attrs: mustprogress nofree nounwind sspstrong uwtable willreturn
define dso_local double @r(double %0, double %1, double %2, double %3, double %4) local_unnamed_addr #4 {
  %6 = fdiv double %4, 7.200000e+02
  %7 = fmul double %6, 2.000000e+00
  %8 = fmul double %7, 1.000000e+02
  %9 = fmul double %0, %1
  %10 = fmul double %9, %2
  %11 = fmul double %10, %3
  %12 = tail call double @cos(double %8) #6
  %13 = fmul double %11, %12
  %14 = tail call double @cos(double %8) #6
  %15 = fmul double %13, %14
  ret double %15
}

; Function Attrs: nofree nounwind
declare noundef i32 @printf(i8* nocapture noundef readonly, ...) local_unnamed_addr #2

; Function Attrs: mustprogress nofree nounwind willreturn
declare double @sqrt(double) local_unnamed_addr #5

; Function Attrs: argmemonly mustprogress nofree nosync nounwind willreturn
declare void @llvm.lifetime.end.p0i8(i64 immarg, i8* nocapture) #1

; Function Attrs: mustprogress nofree norecurse nosync nounwind readnone sspstrong uwtable willreturn
define dso_local double @s(double %0, double %1, double %2, double %3) local_unnamed_addr #3 {
  %5 = fadd double %0, %1
  %6 = fadd double %5, %2
  %7 = fadd double %6, %3
  %8 = fmul double %7, 5.000000e-01
  ret double %8
}

; Function Attrs: mustprogress nofree nounwind willreturn
declare double @cos(double) local_unnamed_addr #5


!llvm.module.flags = !{!0, !1, !2, !3}
!llvm.ident = !{!4}

!0 = !{i32 1, !"wchar_size", i32 4}
!1 = !{i32 7, !"PIC Level", i32 2}
!2 = !{i32 7, !"PIE Level", i32 2}
!3 = !{i32 7, !"uwtable", i32 1}
!4 = !{!"clang version 13.0.0"}
!5 = !{!6, !6, i64 0}
!6 = !{!"double", !7, i64 0}
!7 = !{!"omnipotent char", !8, i64 0}
!8 = !{!"Simple C/C++ TBAA"}
